Certificate:
    Data:
        Version: 3 (0x2)
        Serial Number: 1 (0x1)
        Signature Algorithm: sha256WithRSAEncryption
        Issuer: C=AU, ST=Some-State, O=Internet Widgits Pty Ltd, CN=inter
        Validity
            Not Before: Apr  8 05:18:55 2015 GMT
            Not After : Apr  7 05:18:55 2016 GMT
        Subject: C=AU, ST=Some-State, O=Internet Widgits Pty Ltd, CN=*
        Subject Public Key Info:
            Public Key Algorithm: rsaEncryption
            RSA Public Key: (2048 bit)
                Modulus (2048 bit):
                    00:bb:26:fc:6b:e4:d5:6b:68:9f:90:44:46:64:1e:
                    df:9b:e1:3f:30:cd:fd:d5:d8:c5:59:fc:47:07:49:
                    61:99:61:b4:1f:62:7e:9d:c3:3c:66:cd:b9:2a:e9:
                    c8:9c:bc:fe:20:64:28:13:9a:5a:a7:c2:a6:d9:d6:
                    32:d6:5c:fe:93:c7:58:00:e8:9a:05:5a:23:32:95:
                    76:aa:88:d6:73:8e:9c:de:46:fa:11:d7:c7:a1:59:
                    ba:31:e3:26:64:f7:d1:0b:03:38:bb:e2:fb:24:6a:
                    90:f6:75:24:0a:09:fb:04:41:49:33:22:63:20:7e:
                    f2:77:39:21:c0:4f:3e:0c:53:71:79:c4:92:1b:f7:
                    8b:2d:4f:64:04:19:62:72:5d:62:dc:45:65:81:ad:
                    6d:d3:ea:f2:87:93:e2:d3:a5:c2:14:42:63:e8:6d:
                    a4:7b:a4:81:a7:1f:c8:85:27:64:11:2d:1c:64:70:
                    84:f2:56:1b:b7:ee:4b:82:ae:d4:32:30:47:b8:34:
                    49:1c:a1:40:90:21:3a:b0:42:bf:9d:bb:61:9e:b6:
                    e2:59:b9:af:7c:c4:e4:e0:9f:0e:39:13:d9:04:54:
                    ac:62:e9:91:11:02:ee:26:02:7e:5a:ca:98:23:82:
                    ca:09:73:89:13:a8:f3:e9:51:38:7d:f5:59:7f:c6:
                    0d:2f
                Exponent: 65537 (0x10001)
        X509v3 extensions:
            X509v3 Basic Constraints: 
                CA:FALSE
            Netscape Comment: 
                OpenSSL Generated Certificate
            X509v3 Subject Key Identifier: 
                D9:D3:CF:98:3E:F6:3C:8A:E1:39:A1:1D:67:48:59:4B:B2:0B:3A:D2
            X509v3 Authority Key Identifier: 
                keyid:88:F7:03:89:90:AC:3F:F8:9D:FE:80:B5:B6:A2:C5:62:BC:87:13:7A

    Signature Algorithm: sha256WithRSAEncryption
        57:c7:29:db:d6:42:55:e6:39:17:b8:b1:3e:70:0f:67:27:da:
        e3:f7:a7:3e:cd:0e:b6:97:92:fd:ec:b9:ec:f1:ae:f9:5b:f0:
        0e:78:95:75:da:45:40:8a:45:55:36:2c:1d:fa:38:b2:28:a1:
        38:e0:de:3b:cc:e1:12:64:c6:8b:05:b0:bf:44:bf:9a:04:b2:
        1f:ab:65:62:90:90:78:40:8c:fa:29:87:e1:08:6a:d1:99:04:
        7f:ac:66:d0:b3:1e:7f:4b:a2:89:6c:10:34:77:24:bb:e7:f1:
        ca:5b:f8:07:3a:f4:fe:27:d1:e0:27:7b:42:1c:fe:b4:89:f7:
        64:c8:ff:a9:0f:4e:07:2a:4c:e4:bd:40:4f:ee:0f:49:93:fe:
        1e:1a:4e:11:23:ed:c1:00:af:38:bf:85:21:9e:af:7c:af:d9:
        6d:72:36:2a:da:a6:de:f3:d4:14:70:77:cf:eb:0b:63:88:e6:
        f4:08:72:33:cf:87:10:63:49:e4:4e:9c:4b:bc:d3:7f:3f:8e:
        f7:17:38:10:b7:a9:57:af:96:62:8c:73:f8:8d:da:a0:33:5c:
        17:37:6c:d6:82:21:f4:5f:a1:48:e4:80:f5:61:54:c3:b4:b4:
        a6:a5:14:60:43:46:6e:c0:15:2f:0f:06:14:3c:23:e9:d1:7b:
        95:c0:14:81
-----BEGIN CERTIFICATE-----
MIIDnDCCAoSgAwIBAgIBATANBgkqhkiG9w0BAQsFADBVMQswCQYDVQQGEwJBVTET
MBEGA1UECBMKU29tZS1TdGF0ZTEhMB8GA1UEChMYSW50ZXJuZXQgV2lkZ2l0cyBQ
dHkgTHRkMQ4wDAYDVQQDEwVpbnRlcjAeFw0xNTA0MDgwNTE4NTVaFw0xNjA0MDcw
NTE4NTVaMFExCzAJBgNVBAYTAkFVMRMwEQYDVQQIEwpTb21lLVN0YXRlMSEwHwYD
VQQKExhJbnRlcm5ldCBXaWRnaXRzIFB0eSBMdGQxCjAIBgNVBAMUASowggEiMA0G
CSqGSIb3DQEBAQUAA4IBDwAwggEKAoIBAQC7Jvxr5NVraJ+QREZkHt+b4T8wzf3V
2MVZ/EcHSWGZYbQfYn6dwzxmzbkq6cicvP4gZCgTmlqnwqbZ1jLWXP6Tx1gA6JoF
WiMylXaqiNZzjpzeRvoR18ehWbox4yZk99ELAzi74vskapD2dSQKCfsEQUkzImMg
fvJ3OSHATz4MU3F5xJIb94stT2QEGWJyXWLcRWWBrW3T6vKHk+LTpcIUQmPobaR7
pIGnH8iFJ2QRLRxkcITyVhu37kuCrtQyMEe4NEkcoUCQITqwQr+du2GetuJZua98
xOTgnw45E9kEVKxi6ZERAu4mAn5aypgjgsoJc4kTqPPpUTh99Vl/xg0vAgMBAAGj
ezB5MAkGA1UdEwQCMAAwLAYJYIZIAYb4QgENBB8WHU9wZW5TU0wgR2VuZXJhdGVk
IENlcnRpZmljYXRlMB0GA1UdDgQWBBTZ08+YPvY8iuE5oR1nSFlLsgs60jAfBgNV
HSMEGDAWgBSI9wOJkKw/+J3+gLW2osVivIcTejANBgkqhkiG9w0BAQsFAAOCAQEA
V8cp29ZCVeY5F7ixPnAPZyfa4/enPs0OtpeS/ey57PGu+VvwDniVddpFQIpFVTYs
Hfo4siihOODeO8zhEmTGiwWwv0S/mgSyH6tlYpCQeECM+imH4Qhq0ZkEf6xm0LMe
f0uiiWwQNHcku+fxylv4Bzr0/ifR4Cd7Qhz+tIn3ZMj/qQ9OBypM5L1AT+4PSZP+
HhpOESPtwQCvOL+FIZ6vfK/ZbXI2Ktqm3vPUFHB3z+sLY4jm9AhyM8+HEGNJ5E6c
S7zTfz+O9xc4ELepV6+WYoxz+I3aoDNcFzds1oIh9F+hSOSA9WFUw7S0pqUUYENG
bsAVLw8GFDwj6dF7lcAUgQ==
-----END CERTIFICATE-----
