Certificate:
    Data:
        Version: 3 (0x2)
        Serial Number: 2 (0x2)
        Signature Algorithm: sha256WithRSAEncryption
        Issuer: C=AU, ST=Some-State, O=Internet Widgits Pty Ltd, CN=root
        Validity
            Not Before: Apr  8 05:18:55 2015 GMT
            Not After : Apr  5 05:18:55 2025 GMT
        Subject: C=AU, ST=Some-State, O=Internet Widgits Pty Ltd, CN=inter
        Subject Public Key Info:
            Public Key Algorithm: rsaEncryption
            RSA Public Key: (2048 bit)
                Modulus (2048 bit):
                    00:ce:53:f9:19:17:3a:b3:00:db:35:7e:15:b5:0f:
                    9a:d4:a7:22:e3:74:e4:44:10:a5:00:f0:50:65:96:
                    da:4f:4a:c5:17:09:84:84:b8:83:81:37:5c:2d:c2:
                    23:6f:94:1b:d9:d7:da:e1:c8:92:14:c3:ee:2f:81:
                    28:11:64:7f:96:52:4b:74:49:02:23:28:83:46:4f:
                    ba:6f:54:91:c9:88:e3:a1:82:df:b6:bc:a8:b2:0b:
                    8d:72:ea:5c:f9:d1:2c:db:96:07:4c:1f:77:3e:f7:
                    1e:b8:24:22:1a:29:05:3e:e8:bc:92:1d:0d:f3:0c:
                    04:1d:b9:6f:ab:02:a2:24:f1:c0:49:7c:8d:08:d1:
                    0e:5a:fe:c8:78:74:8c:6e:63:e6:57:4c:92:4d:93:
                    b0:3d:dd:b3:89:3a:19:2e:d9:70:ee:3c:ad:2a:c1:
                    d2:79:40:57:bb:fe:29:ce:19:d4:28:94:31:59:ba:
                    59:23:d3:7f:2d:c4:f6:b6:0c:68:2b:f2:9c:94:19:
                    fd:e9:47:20:61:c7:06:7a:77:8f:e6:26:a7:f7:2f:
                    f1:2d:5c:c6:a2:f0:df:a2:b9:c2:72:c7:85:99:3c:
                    f6:51:fd:90:ca:b0:1f:3d:f1:0a:f4:ea:3e:b8:08:
                    fc:0b:5a:78:37:fb:30:f5:4b:0f:8f:55:dd:06:07:
                    79:35
                Exponent: 65537 (0x10001)
        X509v3 extensions:
            X509v3 Subject Key Identifier: 
                88:F7:03:89:90:AC:3F:F8:9D:FE:80:B5:B6:A2:C5:62:BC:87:13:7A
            X509v3 Authority Key Identifier: 
                keyid:C8:9C:94:0D:F8:0A:FD:C9:A9:B6:19:67:DF:19:04:14:4C:ED:11:23

            X509v3 Basic Constraints: 
                CA:TRUE
    Signature Algorithm: sha256WithRSAEncryption
        7e:8f:c7:fe:93:16:84:11:1e:08:9a:9d:4f:14:55:6b:2c:e2:
        74:7a:3f:2d:55:ce:77:5c:90:ce:a0:ff:04:6d:74:52:46:28:
        54:f1:78:66:b2:ff:2f:36:24:bd:e3:94:fd:49:99:8b:fd:47:
        e4:55:30:a9:c5:80:4b:19:12:93:71:5b:7a:66:78:4f:00:1f:
        02:61:b6:16:16:23:7c:e0:3d:1f:f0:2b:ab:85:0c:bd:b9:fc:
        55:ef:36:2d:19:e3:a0:d3:94:61:d9:b5:40:25:fd:81:65:36:
        46:f2:01:32:1a:53:8e:6d:ac:67:bb:9a:6d:58:19:5c:6c:ac:
        19:15:a1:e3:9f:f4:e8:a3:97:28:65:b1:ed:47:fe:3f:20:b7:
        21:13:07:22:2a:fe:c1:f0:2c:a8:e6:f4:5a:c4:82:7c:67:b5:
        25:56:c1:2d:53:72:e6:a1:c6:f9:06:73:75:15:e7:ef:d8:77:
        2c:b5:c8:98:80:b5:b0:c1:c0:f8:81:89:6b:e4:7c:1c:73:1d:
        37:f9:a9:7a:c3:f3:1a:14:eb:19:c7:69:12:4a:13:49:42:b6:
        b1:94:d9:6d:bb:8a:2a:60:19:a9:1d:35:92:30:bc:50:4a:93:
        10:2d:22:2a:b0:12:a0:6a:05:80:c3:51:96:e4:44:a4:60:4a:
        37:da:a8:e3
-----BEGIN CERTIFICATE-----
MIIDdDCCAlygAwIBAgIBAjANBgkqhkiG9w0BAQsFADBUMQswCQYDVQQGEwJBVTET
MBEGA1UECBMKU29tZS1TdGF0ZTEhMB8GA1UEChMYSW50ZXJuZXQgV2lkZ2l0cyBQ
dHkgTHRkMQ0wCwYDVQQDEwRyb290MB4XDTE1MDQwODA1MTg1NVoXDTI1MDQwNTA1
MTg1NVowVTELMAkGA1UEBhMCQVUxEzARBgNVBAgTClNvbWUtU3RhdGUxITAfBgNV
BAoTGEludGVybmV0IFdpZGdpdHMgUHR5IEx0ZDEOMAwGA1UEAxMFaW50ZXIwggEi
MA0GCSqGSIb3DQEBAQUAA4IBDwAwggEKAoIBAQDOU/kZFzqzANs1fhW1D5rUpyLj
dOREEKUA8FBlltpPSsUXCYSEuIOBN1wtwiNvlBvZ19rhyJIUw+4vgSgRZH+WUkt0
SQIjKINGT7pvVJHJiOOhgt+2vKiyC41y6lz50SzblgdMH3c+9x64JCIaKQU+6LyS
HQ3zDAQduW+rAqIk8cBJfI0I0Q5a/sh4dIxuY+ZXTJJNk7A93bOJOhku2XDuPK0q
wdJ5QFe7/inOGdQolDFZulkj038txPa2DGgr8pyUGf3pRyBhxwZ6d4/mJqf3L/Et
XMai8N+iucJyx4WZPPZR/ZDKsB898Qr06j64CPwLWng3+zD1Sw+PVd0GB3k1AgMB
AAGjUDBOMB0GA1UdDgQWBBSI9wOJkKw/+J3+gLW2osVivIcTejAfBgNVHSMEGDAW
gBTInJQN+Ar9yam2GWffGQQUTO0RIzAMBgNVHRMEBTADAQH/MA0GCSqGSIb3DQEB
CwUAA4IBAQB+j8f+kxaEER4Imp1PFFVrLOJ0ej8tVc53XJDOoP8EbXRSRihU8Xhm
sv8vNiS945T9SZmL/UfkVTCpxYBLGRKTcVt6ZnhPAB8CYbYWFiN84D0f8CurhQy9
ufxV7zYtGeOg05Rh2bVAJf2BZTZG8gEyGlOObaxnu5ptWBlcbKwZFaHjn/Too5co
ZbHtR/4/ILchEwciKv7B8Cyo5vRaxIJ8Z7UlVsEtU3Lmocb5BnN1Fefv2HcstciY
gLWwwcD4gYlr5Hwccx03+al6w/MaFOsZx2kSShNJQraxlNltu4oqYBmpHTWSMLxQ
SpMQLSIqsBKgagWAw1GW5ESkYEo32qjj
-----END CERTIFICATE-----
Certificate:
    Data:
        Version: 3 (0x2)
        Serial Number: 1 (0x1)
        Signature Algorithm: sha256WithRSAEncryption
        Issuer: C=AU, ST=Some-State, O=Internet Widgits Pty Ltd, CN=root
        Validity
            Not Before: Apr  8 05:18:54 2015 GMT
            Not After : Apr  5 05:18:54 2025 GMT
        Subject: C=AU, ST=Some-State, O=Internet Widgits Pty Ltd, CN=root
        Subject Public Key Info:
            Public Key Algorithm: rsaEncryption
            RSA Public Key: (2048 bit)
                Modulus (2048 bit):
                    00:a1:0d:34:5e:bf:4b:44:9d:c8:19:36:cc:23:57:
                    e6:8a:1e:5d:fe:e2:51:46:d9:08:a2:ab:3a:91:fa:
                    9b:ed:b3:c6:e2:52:b9:f0:a6:d8:b2:f9:10:bb:80:
                    0e:7c:3f:f4:a4:06:04:b5:f0:1c:10:53:16:c3:9b:
                    7c:48:c7:a7:d8:2b:69:0c:a4:b0:f9:0c:4a:ea:b7:
                    87:ba:67:0a:ea:2c:90:1c:6e:41:aa:42:5f:1b:cd:
                    07:30:27:cc:44:82:5f:20:23:9c:fc:ab:1d:e5:1c:
                    21:a0:72:21:17:7f:d8:55:03:29:eb:56:52:d3:35:
                    d2:32:dc:00:31:90:f9:ac:70:24:9f:08:13:45:2c:
                    c2:06:da:b1:d5:86:4d:14:bf:b9:9d:56:2d:e9:22:
                    27:09:22:31:a2:5f:49:81:9d:41:77:de:42:c1:d1:
                    d8:79:94:c2:fc:24:dd:4b:b3:36:de:7d:6e:b7:34:
                    0d:42:35:bc:95:36:d8:6d:60:fe:61:78:11:ed:48:
                    f0:b6:a8:24:85:d2:c0:49:12:e1:ab:58:91:68:31:
                    ec:e5:79:19:55:87:85:06:0b:ae:7f:e7:30:ea:e2:
                    87:96:7d:2c:9e:e9:16:fe:41:75:34:4f:61:6c:c3:
                    df:45:34:11:28:1c:3b:57:14:c9:7f:92:d3:4a:c0:
                    a1:d7
                Exponent: 65537 (0x10001)
        X509v3 extensions:
            X509v3 Subject Key Identifier: 
                C8:9C:94:0D:F8:0A:FD:C9:A9:B6:19:67:DF:19:04:14:4C:ED:11:23
            X509v3 Authority Key Identifier: 
                keyid:C8:9C:94:0D:F8:0A:FD:C9:A9:B6:19:67:DF:19:04:14:4C:ED:11:23

            X509v3 Basic Constraints: 
                CA:TRUE
    Signature Algorithm: sha256WithRSAEncryption
        5e:a9:66:25:cc:4a:5a:70:cd:f4:3a:8f:e4:7c:99:6b:7d:8f:
        b6:b8:49:88:45:c9:d1:14:3b:ed:72:e2:8b:43:0a:5e:60:23:
        e5:63:07:1f:95:41:ee:eb:92:81:ce:1e:88:37:ba:eb:b3:62:
        aa:d8:22:27:66:8d:eb:24:0b:97:25:d8:b3:47:85:ca:f5:af:
        37:32:23:0f:14:1e:51:e7:b9:77:d8:4a:e9:b0:84:06:a4:fc:
        a7:34:28:67:62:e6:24:d0:f8:fe:8d:27:5f:06:4a:aa:85:32:
        ff:7d:d8:e1:47:dd:88:08:75:7e:e8:00:1c:ce:3d:dd:1a:92:
        6f:09:34:98:d0:cf:2a:f7:6f:81:8b:1f:97:f9:f5:bc:4c:5a:
        ba:22:23:b5:ba:02:d8:5d:2f:cc:41:71:fb:df:01:7b:a1:f1:
        5a:6d:48:33:ff:c5:7a:35:b1:2b:8c:e4:bb:c8:ed:b5:93:f9:
        65:2a:39:bb:e9:6b:11:91:56:7a:08:5f:6f:b9:83:c0:3c:6f:
        ec:1c:09:da:5b:9d:4d:a6:a1:2a:6c:94:d5:11:ec:95:33:53:
        69:10:0e:aa:31:d2:f6:d2:54:d5:96:e1:76:66:d3:45:76:53:
        3a:54:b0:61:72:c9:ba:fc:db:b0:1d:22:db:15:c6:be:f2:34:
        28:7f:88:6d
-----BEGIN CERTIFICATE-----
MIIDczCCAlugAwIBAgIBATANBgkqhkiG9w0BAQsFADBUMQswCQYDVQQGEwJBVTET
MBEGA1UECBMKU29tZS1TdGF0ZTEhMB8GA1UEChMYSW50ZXJuZXQgV2lkZ2l0cyBQ
dHkgTHRkMQ0wCwYDVQQDEwRyb290MB4XDTE1MDQwODA1MTg1NFoXDTI1MDQwNTA1
MTg1NFowVDELMAkGA1UEBhMCQVUxEzARBgNVBAgTClNvbWUtU3RhdGUxITAfBgNV
BAoTGEludGVybmV0IFdpZGdpdHMgUHR5IEx0ZDENMAsGA1UEAxMEcm9vdDCCASIw
DQYJKoZIhvcNAQEBBQADggEPADCCAQoCggEBAKENNF6/S0SdyBk2zCNX5ooeXf7i
UUbZCKKrOpH6m+2zxuJSufCm2LL5ELuADnw/9KQGBLXwHBBTFsObfEjHp9graQyk
sPkMSuq3h7pnCuoskBxuQapCXxvNBzAnzESCXyAjnPyrHeUcIaByIRd/2FUDKetW
UtM10jLcADGQ+axwJJ8IE0UswgbasdWGTRS/uZ1WLekiJwkiMaJfSYGdQXfeQsHR
2HmUwvwk3UuzNt59brc0DUI1vJU22G1g/mF4Ee1I8LaoJIXSwEkS4atYkWgx7OV5
GVWHhQYLrn/nMOrih5Z9LJ7pFv5BdTRPYWzD30U0ESgcO1cUyX+S00rAodcCAwEA
AaNQME4wHQYDVR0OBBYEFMiclA34Cv3JqbYZZ98ZBBRM7REjMB8GA1UdIwQYMBaA
FMiclA34Cv3JqbYZZ98ZBBRM7REjMAwGA1UdEwQFMAMBAf8wDQYJKoZIhvcNAQEL
BQADggEBAF6pZiXMSlpwzfQ6j+R8mWt9j7a4SYhFydEUO+1y4otDCl5gI+VjBx+V
Qe7rkoHOHog3uuuzYqrYIidmjeskC5cl2LNHhcr1rzcyIw8UHlHnuXfYSumwhAak
/Kc0KGdi5iTQ+P6NJ18GSqqFMv992OFH3YgIdX7oABzOPd0akm8JNJjQzyr3b4GL
H5f59bxMWroiI7W6AthdL8xBcfvfAXuh8VptSDP/xXo1sSuM5LvI7bWT+WUqObvp
axGRVnoIX2+5g8A8b+wcCdpbnU2moSpslNUR7JUzU2kQDqox0vbSVNWW4XZm00V2
UzpUsGFyybr827AdItsVxr7yNCh/iG0=
-----END CERTIFICATE-----
