Certificate:
    Data:
        Version: 3 (0x2)
        Serial Number: 1 (0x1)
        Signature Algorithm: sha256WithRSAEncryption
        Issuer: C=AU, ST=Some-State, O=Internet Widgits Pty Ltd, CN=inter
        Validity
            Not Before: Apr  8 05:18:55 2015 GMT
            Not After : Apr  7 05:18:55 2016 GMT
        Subject: C=AU, ST=Some-State, O=Internet Widgits Pty Ltd, CN=*
        Subject Public Key Info:
            Public Key Algorithm: rsaEncryption
            RSA Public Key: (2048 bit)
                Modulus (2048 bit):
                    00:bb:26:fc:6b:e4:d5:6b:68:9f:90:44:46:64:1e:
                    df:9b:e1:3f:30:cd:fd:d5:d8:c5:59:fc:47:07:49:
                    61:99:61:b4:1f:62:7e:9d:c3:3c:66:cd:b9:2a:e9:
                    c8:9c:bc:fe:20:64:28:13:9a:5a:a7:c2:a6:d9:d6:
                    32:d6:5c:fe:93:c7:58:00:e8:9a:05:5a:23:32:95:
                    76:aa:88:d6:73:8e:9c:de:46:fa:11:d7:c7:a1:59:
                    ba:31:e3:26:64:f7:d1:0b:03:38:bb:e2:fb:24:6a:
                    90:f6:75:24:0a:09:fb:04:41:49:33:22:63:20:7e:
                    f2:77:39:21:c0:4f:3e:0c:53:71:79:c4:92:1b:f7:
                    8b:2d:4f:64:04:19:62:72:5d:62:dc:45:65:81:ad:
                    6d:d3:ea:f2:87:93:e2:d3:a5:c2:14:42:63:e8:6d:
                    a4:7b:a4:81:a7:1f:c8:85:27:64:11:2d:1c:64:70:
                    84:f2:56:1b:b7:ee:4b:82:ae:d4:32:30:47:b8:34:
                    49:1c:a1:40:90:21:3a:b0:42:bf:9d:bb:61:9e:b6:
                    e2:59:b9:af:7c:c4:e4:e0:9f:0e:39:13:d9:04:54:
                    ac:62:e9:91:11:02:ee:26:02:7e:5a:ca:98:23:82:
                    ca:09:73:89:13:a8:f3:e9:51:38:7d:f5:59:7f:c6:
                    0d:2f
                Exponent: 65537 (0x10001)
        X509v3 extensions:
            X509v3 Basic Constraints: 
                CA:FALSE
            Netscape Comment: 
                OpenSSL Generated Certificate
            X509v3 Subject Key Identifier: 
                D9:D3:CF:98:3E:F6:3C:8A:E1:39:A1:1D:67:48:59:4B:B2:0B:3A:D2
            X509v3 Authority Key Identifier: 
                keyid:88:F7:03:89:90:AC:3F:F8:9D:FE:80:B5:B6:A2:C5:62:BC:87:13:7A

    Signature Algorithm: sha256WithRSAEncryption
        57:c7:29:db:d6:42:55:e6:39:17:b8:b1:3e:70:0f:67:27:da:
        e3:f7:a7:3e:cd:0e:b6:97:92:fd:ec:b9:ec:f1:ae:f9:5b:f0:
        0e:78:95:75:da:45:40:8a:45:55:36:2c:1d:fa:38:b2:28:a1:
        38:e0:de:3b:cc:e1:12:64:c6:8b:05:b0:bf:44:bf:9a:04:b2:
        1f:ab:65:62:90:90:78:40:8c:fa:29:87:e1:08:6a:d1:99:04:
        7f:ac:66:d0:b3:1e:7f:4b:a2:89:6c:10:34:77:24:bb:e7:f1:
        ca:5b:f8:07:3a:f4:fe:27:d1:e0:27:7b:42:1c:fe:b4:89:f7:
        64:c8:ff:a9:0f:4e:07:2a:4c:e4:bd:40:4f:ee:0f:49:93:fe:
        1e:1a:4e:11:23:ed:c1:00:af:38:bf:85:21:9e:af:7c:af:d9:
        6d:72:36:2a:da:a6:de:f3:d4:14:70:77:cf:eb:0b:63:88:e6:
        f4:08:72:33:cf:87:10:63:49:e4:4e:9c:4b:bc:d3:7f:3f:8e:
        f7:17:38:10:b7:a9:57:af:96:62:8c:73:f8:8d:da:a0:33:5c:
        17:37:6c:d6:82:21:f4:5f:a1:48:e4:80:f5:61:54:c3:b4:b4:
        a6:a5:14:60:43:46:6e:c0:15:2f:0f:06:14:3c:23:e9:d1:7b:
        95:c0:14:81
-----BEGIN CERTIFICATE-----
MIIDnDCCAoSgAwIBAgIBATANBgkqhkiG9w0BAQsFADBVMQswCQYDVQQGEwJBVTET
MBEGA1UECBMKU29tZS1TdGF0ZTEhMB8GA1UEChMYSW50ZXJuZXQgV2lkZ2l0cyBQ
dHkgTHRkMQ4wDAYDVQQDEwVpbnRlcjAeFw0xNTA0MDgwNTE4NTVaFw0xNjA0MDcw
NTE4NTVaMFExCzAJBgNVBAYTAkFVMRMwEQYDVQQIEwpTb21lLVN0YXRlMSEwHwYD
VQQKExhJbnRlcm5ldCBXaWRnaXRzIFB0eSBMdGQxCjAIBgNVBAMUASowggEiMA0G
CSqGSIb3DQEBAQUAA4IBDwAwggEKAoIBAQC7Jvxr5NVraJ+QREZkHt+b4T8wzf3V
2MVZ/EcHSWGZYbQfYn6dwzxmzbkq6cicvP4gZCgTmlqnwqbZ1jLWXP6Tx1gA6JoF
WiMylXaqiNZzjpzeRvoR18ehWbox4yZk99ELAzi74vskapD2dSQKCfsEQUkzImMg
fvJ3OSHATz4MU3F5xJIb94stT2QEGWJyXWLcRWWBrW3T6vKHk+LTpcIUQmPobaR7
pIGnH8iFJ2QRLRxkcITyVhu37kuCrtQyMEe4NEkcoUCQITqwQr+du2GetuJZua98
xOTgnw45E9kEVKxi6ZERAu4mAn5aypgjgsoJc4kTqPPpUTh99Vl/xg0vAgMBAAGj
ezB5MAkGA1UdEwQCMAAwLAYJYIZIAYb4QgENBB8WHU9wZW5TU0wgR2VuZXJhdGVk
IENlcnRpZmljYXRlMB0GA1UdDgQWBBTZ08+YPvY8iuE5oR1nSFlLsgs60jAfBgNV
HSMEGDAWgBSI9wOJkKw/+J3+gLW2osVivIcTejANBgkqhkiG9w0BAQsFAAOCAQEA
V8cp29ZCVeY5F7ixPnAPZyfa4/enPs0OtpeS/ey57PGu+VvwDniVddpFQIpFVTYs
Hfo4siihOODeO8zhEmTGiwWwv0S/mgSyH6tlYpCQeECM+imH4Qhq0ZkEf6xm0LMe
f0uiiWwQNHcku+fxylv4Bzr0/ifR4Cd7Qhz+tIn3ZMj/qQ9OBypM5L1AT+4PSZP+
HhpOESPtwQCvOL+FIZ6vfK/ZbXI2Ktqm3vPUFHB3z+sLY4jm9AhyM8+HEGNJ5E6c
S7zTfz+O9xc4ELepV6+WYoxz+I3aoDNcFzds1oIh9F+hSOSA9WFUw7S0pqUUYENG
bsAVLw8GFDwj6dF7lcAUgQ==
-----END CERTIFICATE-----
Certificate:
    Data:
        Version: 3 (0x2)
        Serial Number: 2 (0x2)
        Signature Algorithm: sha256WithRSAEncryption
        Issuer: C=AU, ST=Some-State, O=Internet Widgits Pty Ltd, CN=root
        Validity
            Not Before: Apr  8 05:18:55 2015 GMT
            Not After : Apr  5 05:18:55 2025 GMT
        Subject: C=AU, ST=Some-State, O=Internet Widgits Pty Ltd, CN=inter
        Subject Public Key Info:
            Public Key Algorithm: rsaEncryption
            RSA Public Key: (2048 bit)
                Modulus (2048 bit):
                    00:ce:53:f9:19:17:3a:b3:00:db:35:7e:15:b5:0f:
                    9a:d4:a7:22:e3:74:e4:44:10:a5:00:f0:50:65:96:
                    da:4f:4a:c5:17:09:84:84:b8:83:81:37:5c:2d:c2:
                    23:6f:94:1b:d9:d7:da:e1:c8:92:14:c3:ee:2f:81:
                    28:11:64:7f:96:52:4b:74:49:02:23:28:83:46:4f:
                    ba:6f:54:91:c9:88:e3:a1:82:df:b6:bc:a8:b2:0b:
                    8d:72:ea:5c:f9:d1:2c:db:96:07:4c:1f:77:3e:f7:
                    1e:b8:24:22:1a:29:05:3e:e8:bc:92:1d:0d:f3:0c:
                    04:1d:b9:6f:ab:02:a2:24:f1:c0:49:7c:8d:08:d1:
                    0e:5a:fe:c8:78:74:8c:6e:63:e6:57:4c:92:4d:93:
                    b0:3d:dd:b3:89:3a:19:2e:d9:70:ee:3c:ad:2a:c1:
                    d2:79:40:57:bb:fe:29:ce:19:d4:28:94:31:59:ba:
                    59:23:d3:7f:2d:c4:f6:b6:0c:68:2b:f2:9c:94:19:
                    fd:e9:47:20:61:c7:06:7a:77:8f:e6:26:a7:f7:2f:
                    f1:2d:5c:c6:a2:f0:df:a2:b9:c2:72:c7:85:99:3c:
                    f6:51:fd:90:ca:b0:1f:3d:f1:0a:f4:ea:3e:b8:08:
                    fc:0b:5a:78:37:fb:30:f5:4b:0f:8f:55:dd:06:07:
                    79:35
                Exponent: 65537 (0x10001)
        X509v3 extensions:
            X509v3 Subject Key Identifier: 
                88:F7:03:89:90:AC:3F:F8:9D:FE:80:B5:B6:A2:C5:62:BC:87:13:7A
            X509v3 Authority Key Identifier: 
                keyid:C8:9C:94:0D:F8:0A:FD:C9:A9:B6:19:67:DF:19:04:14:4C:ED:11:23

            X509v3 Basic Constraints: 
                CA:TRUE
    Signature Algorithm: sha256WithRSAEncryption
        7e:8f:c7:fe:93:16:84:11:1e:08:9a:9d:4f:14:55:6b:2c:e2:
        74:7a:3f:2d:55:ce:77:5c:90:ce:a0:ff:04:6d:74:52:46:28:
        54:f1:78:66:b2:ff:2f:36:24:bd:e3:94:fd:49:99:8b:fd:47:
        e4:55:30:a9:c5:80:4b:19:12:93:71:5b:7a:66:78:4f:00:1f:
        02:61:b6:16:16:23:7c:e0:3d:1f:f0:2b:ab:85:0c:bd:b9:fc:
        55:ef:36:2d:19:e3:a0:d3:94:61:d9:b5:40:25:fd:81:65:36:
        46:f2:01:32:1a:53:8e:6d:ac:67:bb:9a:6d:58:19:5c:6c:ac:
        19:15:a1:e3:9f:f4:e8:a3:97:28:65:b1:ed:47:fe:3f:20:b7:
        21:13:07:22:2a:fe:c1:f0:2c:a8:e6:f4:5a:c4:82:7c:67:b5:
        25:56:c1:2d:53:72:e6:a1:c6:f9:06:73:75:15:e7:ef:d8:77:
        2c:b5:c8:98:80:b5:b0:c1:c0:f8:81:89:6b:e4:7c:1c:73:1d:
        37:f9:a9:7a:c3:f3:1a:14:eb:19:c7:69:12:4a:13:49:42:b6:
        b1:94:d9:6d:bb:8a:2a:60:19:a9:1d:35:92:30:bc:50:4a:93:
        10:2d:22:2a:b0:12:a0:6a:05:80:c3:51:96:e4:44:a4:60:4a:
        37:da:a8:e3
-----BEGIN CERTIFICATE-----
MIIDdDCCAlygAwIBAgIBAjANBgkqhkiG9w0BAQsFADBUMQswCQYDVQQGEwJBVTET
MBEGA1UECBMKU29tZS1TdGF0ZTEhMB8GA1UEChMYSW50ZXJuZXQgV2lkZ2l0cyBQ
dHkgTHRkMQ0wCwYDVQQDEwRyb290MB4XDTE1MDQwODA1MTg1NVoXDTI1MDQwNTA1
MTg1NVowVTELMAkGA1UEBhMCQVUxEzARBgNVBAgTClNvbWUtU3RhdGUxITAfBgNV
BAoTGEludGVybmV0IFdpZGdpdHMgUHR5IEx0ZDEOMAwGA1UEAxMFaW50ZXIwggEi
MA0GCSqGSIb3DQEBAQUAA4IBDwAwggEKAoIBAQDOU/kZFzqzANs1fhW1D5rUpyLj
dOREEKUA8FBlltpPSsUXCYSEuIOBN1wtwiNvlBvZ19rhyJIUw+4vgSgRZH+WUkt0
SQIjKINGT7pvVJHJiOOhgt+2vKiyC41y6lz50SzblgdMH3c+9x64JCIaKQU+6LyS
HQ3zDAQduW+rAqIk8cBJfI0I0Q5a/sh4dIxuY+ZXTJJNk7A93bOJOhku2XDuPK0q
wdJ5QFe7/inOGdQolDFZulkj038txPa2DGgr8pyUGf3pRyBhxwZ6d4/mJqf3L/Et
XMai8N+iucJyx4WZPPZR/ZDKsB898Qr06j64CPwLWng3+zD1Sw+PVd0GB3k1AgMB
AAGjUDBOMB0GA1UdDgQWBBSI9wOJkKw/+J3+gLW2osVivIcTejAfBgNVHSMEGDAW
gBTInJQN+Ar9yam2GWffGQQUTO0RIzAMBgNVHRMEBTADAQH/MA0GCSqGSIb3DQEB
CwUAA4IBAQB+j8f+kxaEER4Imp1PFFVrLOJ0ej8tVc53XJDOoP8EbXRSRihU8Xhm
sv8vNiS945T9SZmL/UfkVTCpxYBLGRKTcVt6ZnhPAB8CYbYWFiN84D0f8CurhQy9
ufxV7zYtGeOg05Rh2bVAJf2BZTZG8gEyGlOObaxnu5ptWBlcbKwZFaHjn/Too5co
ZbHtR/4/ILchEwciKv7B8Cyo5vRaxIJ8Z7UlVsEtU3Lmocb5BnN1Fefv2HcstciY
gLWwwcD4gYlr5Hwccx03+al6w/MaFOsZx2kSShNJQraxlNltu4oqYBmpHTWSMLxQ
SpMQLSIqsBKgagWAw1GW5ESkYEo32qjj
-----END CERTIFICATE-----
-----BEGIN RSA PRIVATE KEY-----
MIIEowIBAAKCAQEAuyb8a+TVa2ifkERGZB7fm+E/MM391djFWfxHB0lhmWG0H2J+
ncM8Zs25KunInLz+IGQoE5pap8Km2dYy1lz+k8dYAOiaBVojMpV2qojWc46c3kb6
EdfHoVm6MeMmZPfRCwM4u+L7JGqQ9nUkCgn7BEFJMyJjIH7ydzkhwE8+DFNxecSS
G/eLLU9kBBlicl1i3EVlga1t0+ryh5Pi06XCFEJj6G2ke6SBpx/IhSdkES0cZHCE
8lYbt+5Lgq7UMjBHuDRJHKFAkCE6sEK/nbthnrbiWbmvfMTk4J8OORPZBFSsYumR
EQLuJgJ+WsqYI4LKCXOJE6jz6VE4ffVZf8YNLwIDAQABAoIBAQCxYg41pTqzBwLV
liCxnKGL+T4PX+6K1V6YH4ii22ZqHjS+2nfvx7BkL/ClP9go1uh2gveJPO9XuiKy
rVaZ3qJcJsC+e7ggAoMB2rASiofYFv+Pne4/IynPQGA+EHG/mTLFIVSQoF4w8eBb
+EMkULleGxLqKFmT3z6oybm3sGO7AWzItEsjkzkiZSe5P9Cb+2Qwmv0ZrVGSCF2r
ueF98XEDX0gzwGpmCtsMDTng0D6M0icSzqF8zXvrD1l67Hl6BGP2QPY4xx4pJZKq
lKaSHSCeJK7We1HDA+T0sXf+9hQOcv5AkujdRMRetNFkIYTDH09+llH+bx5UtadP
qlvU8ijhAoGBANxlLc7tuSTnIbaoYC/x47v+Mdel/O/HfXQDQpSbavgMzZL/Kd2A
06bylUQrMO5eCvcp4YB46sZhwPR4Qy9Ie9jnY/LMAZW3rhsfYeLOghFoJQHkUd20
FKzPtjneCrBb6WBm4D7B+Xsd2DtrWTbAkN5/jyRxsyBwOxOJjrG3DfVrAoGBANli
/Q3kepWYwqEmNs63nlS0cByq3dR7y1id55SUXswekUV7jXlfldDmp7zJ45pssFkS
Ld5UZcZbhXfWSTRsbOlbPKj3CYHcq8i0Tt010CR21zGA8+1Jy1ZhTFktABRYiQzD
5jOx4D7wyLe2krn5zTJRkil/MC5KiDjyJvEdDLRNAoGAHjuK4x3dDeDe0Q2b1Dfc
Q4eFEs3kOogk/2sLEROYwtoOwSFbftUTM42HSEicd7ZSzsDh/BuaKQhzzZVJsgzB
YGmtXjr55K3DpljRtqkZUoX0vaOyTzVKuMHtf1akJLkW9HBoRnOZY3gel1gMbuRP
exYIbrliFwsOL4npFxvDQG0CgYAW5o6x//fJ+qXGRDhR3pYXZkrJOlbUI5ZwZ3IV
/OtfpXi4USO+PYuSzjmtcbdAdWK+f2PFoC54jvuofDKKC0IN80aYpi2iOJUAN753
H0wmCz7wQB1ySevZ1bYtTshLXGhTp++AUqTE/KiocdtTLDWpr14ucO+qcL+ZACmK
DP1hoQKBgEgKDl0cXjwihzzDoxeoZ9ZOCrQRxPoaMsdZfmWqLyPHtjjX1hcx4zeL
WUeInlwzJtI3cZtAPw+JAPXRStt7m7fIQXXkAcAlgvRSU2aypca+eEvVH2wsvhQz
EXicSAZwy7AkEC7X6baZBXIQ1weCzl9d32xmmYrUue/aP8FbaEbm
-----END RSA PRIVATE KEY-----
